target datalayout = "e-m:e-p270:32:32-p271:32:32-p272:64:64-i64:64-i128:128-f80:128-n8:16:32:64-S128"
target triple = "x86_64-unknown-linux-gnu"

%struct.SCSISense = type { i8, i8, i8 }
%struct.VirtIOSCSICommon = type { %struct.VirtIODevice, %struct.VirtIOSCSIConf, i32, i32, ptr, ptr, ptr }
%struct.VirtIODevice = type { %struct.DeviceState, ptr, i8, i8, i16, i64, i64, i64, i64, ptr, i16, i32, i32, ptr, %struct.MemoryListener, i16, i8, i8, i8, i8, i8, i8, i8, i8, i8, ptr, ptr, i8, i8, ptr, ptr, %union.anon.1, %struct.EventNotifier, i8 }
%struct.DeviceState = type { %struct.Object, ptr, ptr, i8, i8, i64, ptr, i32, i8, ptr, %struct.NamedGPIOListHead, %struct.NamedClockListHead, %struct.BusStateHead, i32, i32, i32, %struct.ResettableState, ptr, %struct.MemReentrancyGuard }
%struct.Object = type { ptr, ptr, ptr, i32, ptr }
%struct.NamedGPIOListHead = type { ptr }
%struct.NamedClockListHead = type { ptr }
%struct.BusStateHead = type { ptr }
%struct.ResettableState = type { i32, i8, i8 }
%struct.MemReentrancyGuard = type { i8 }
%struct.MemoryListener = type { ptr, ptr, ptr, ptr, ptr, ptr, ptr, ptr, ptr, ptr, ptr, ptr, ptr, ptr, ptr, ptr, ptr, i32, ptr, ptr, %union.anon, %union.anon.0 }
%union.anon = type { %struct.QTailQLink }
%struct.QTailQLink = type { ptr, ptr }
%union.anon.0 = type { %struct.QTailQLink }
%union.anon.1 = type { %struct.QTailQLink }
%struct.EventNotifier = type { i32, i32, i8 }
%struct.VirtIOSCSIConf = type { i32, i32, i8, i32, i32, ptr, ptr, %struct.CharBackend, i32, ptr }
%struct.CharBackend = type { ptr, ptr, ptr, ptr, ptr, ptr, i32, i32 }
%struct.VirtIOSCSI = type { %struct.VirtIOSCSICommon, %struct.SCSIBus, i32, i8, ptr, %union.anon.3, ptr, i8, i8, i8, i8, i32 }
%struct.SCSIBus = type { %struct.BusState, i32, %struct.SCSISense, ptr, i32 }
%struct.BusState = type { %struct.Object, ptr, ptr, ptr, i32, i8, i8, i32, %union.BusChildHead, %struct.BusStateEntry, %struct.ResettableState }
%union.BusChildHead = type { %struct.QTailQLink }
%struct.BusStateEntry = type { ptr, ptr }
%union.anon.3 = type { %struct.QTailQLink }
%struct.VirtIOSCSIEventInfo = type { i32, i32, %union.anon.16 }
%union.anon.16 = type { %struct.anon.17 }
%struct.anon.17 = type { i32, i32 }

@.str.6 = private unnamed_addr constant [110 x i8] c"/home/dtcxzyw/WorkSpace/Projects/compilers/llvm-opt-benchmark/bench/qemu/qemu/include/hw/virtio/virtio-scsi.h\00", align 1
@.str.9 = private unnamed_addr constant [19 x i8] c"virtio-scsi-device\00", align 1
@__func__.VIRTIO_SCSI = private unnamed_addr constant [12 x i8] c"VIRTIO_SCSI\00", align 1

; Function Attrs: nounwind sspstrong uwtable
define internal void @virtio_scsi_release(ptr noundef %s) #0 {
entry:
  %s.addr = alloca ptr, align 8
  store ptr %s, ptr %s.addr, align 8
  %0 = load ptr, ptr %s.addr, align 8
  %ctx = getelementptr inbounds %struct.VirtIOSCSI, ptr %0, i32 0, i32 6
  %1 = load ptr, ptr %ctx, align 8
  %tobool = icmp ne ptr %1, null
  br i1 %tobool, label %if.then, label %if.end

if.then:                                          ; preds = %entry
  %2 = load ptr, ptr %s.addr, align 8
  %ctx1 = getelementptr inbounds %struct.VirtIOSCSI, ptr %2, i32 0, i32 6
  %3 = load ptr, ptr %ctx1, align 8
  call void @aio_context_release(ptr noundef %3)
  br label %if.end

if.end:                                           ; preds = %if.then, %entry
  ret void
}

; Function Attrs: nounwind sspstrong uwtable
define internal void @virtio_scsi_handle_event_vq(ptr noundef %s, ptr noundef %vq) #0 {
entry:
  %s.addr = alloca ptr, align 8
  %vq.addr = alloca ptr, align 8
  %info = alloca %struct.VirtIOSCSIEventInfo, align 4
  store ptr %s, ptr %s.addr, align 8
  store ptr %vq, ptr %vq.addr, align 8
  %0 = load ptr, ptr %s.addr, align 8
  %events_dropped = getelementptr inbounds %struct.VirtIOSCSI, ptr %0, i32 0, i32 3
  %1 = load i8, ptr %events_dropped, align 4
  %tobool = trunc i8 %1 to i1
  br i1 %tobool, label %if.then, label %if.end

if.then:                                          ; preds = %entry
  call void @llvm.memset.p0.i64(ptr align 4 %info, i8 0, i64 16, i1 false)
  %2 = load ptr, ptr %s.addr, align 8
  call void @virtio_scsi_push_event(ptr noundef %2, ptr noundef %info)
  br label %if.end

if.end:                                           ; preds = %if.then, %entry
  ret void
}

; Function Attrs: nounwind sspstrong uwtable
define internal void @virtio_scsi_acquire(ptr noundef %s) #0 {
entry:
  %s.addr = alloca ptr, align 8
  store ptr %s, ptr %s.addr, align 8
  %0 = load ptr, ptr %s.addr, align 8
  %ctx = getelementptr inbounds %struct.VirtIOSCSI, ptr %0, i32 0, i32 6
  %1 = load ptr, ptr %ctx, align 8
  %tobool = icmp ne ptr %1, null
  br i1 %tobool, label %if.then, label %if.end

if.then:                                          ; preds = %entry
  %2 = load ptr, ptr %s.addr, align 8
  %ctx1 = getelementptr inbounds %struct.VirtIOSCSI, ptr %2, i32 0, i32 6
  %3 = load ptr, ptr %ctx1, align 8
  call void @aio_context_acquire(ptr noundef %3)
  br label %if.end

if.end:                                           ; preds = %if.then, %entry
  ret void
}

; Function Attrs: nounwind sspstrong uwtable
define internal zeroext i1 @virtio_scsi_defer_to_dataplane(ptr noundef %s) #0 {
entry:
  %retval = alloca i1, align 1
  %s.addr = alloca ptr, align 8
  store ptr %s, ptr %s.addr, align 8
  %0 = load ptr, ptr %s.addr, align 8
  %ctx = getelementptr inbounds %struct.VirtIOSCSI, ptr %0, i32 0, i32 6
  %1 = load ptr, ptr %ctx, align 8
  %tobool = icmp ne ptr %1, null
  br i1 %tobool, label %lor.lhs.false, label %if.then

lor.lhs.false:                                    ; preds = %entry
  %2 = load ptr, ptr %s.addr, align 8
  %dataplane_started = getelementptr inbounds %struct.VirtIOSCSI, ptr %2, i32 0, i32 7
  %3 = load i8, ptr %dataplane_started, align 8
  %tobool1 = trunc i8 %3 to i1
  br i1 %tobool1, label %if.then, label %if.end

if.then:                                          ; preds = %lor.lhs.false, %entry
  store i1 false, ptr %retval, align 1
  br label %return

if.end:                                           ; preds = %lor.lhs.false
  %4 = load ptr, ptr %s.addr, align 8
  %parent_obj = getelementptr inbounds %struct.VirtIOSCSI, ptr %4, i32 0, i32 0
  %parent_obj2 = getelementptr inbounds %struct.VirtIOSCSICommon, ptr %parent_obj, i32 0, i32 0
  %call = call i32 @virtio_device_start_ioeventfd(ptr noundef %parent_obj2)
  %5 = load ptr, ptr %s.addr, align 8
  %dataplane_fenced = getelementptr inbounds %struct.VirtIOSCSI, ptr %5, i32 0, i32 10
  %6 = load i8, ptr %dataplane_fenced, align 1
  %tobool3 = trunc i8 %6 to i1
  %lnot = xor i1 %tobool3, true
  store i1 %lnot, ptr %retval, align 1
  br label %return

return:                                           ; preds = %if.end, %if.then
  %7 = load i1, ptr %retval, align 1
  ret i1 %7
}

; Function Attrs: nounwind sspstrong uwtable
define internal ptr @VIRTIO_SCSI(ptr noundef %obj) #0 {
entry:
  %obj.addr = alloca ptr, align 8
  store ptr %obj, ptr %obj.addr, align 8
  %0 = load ptr, ptr %obj.addr, align 8
  %call = call ptr @object_dynamic_cast_assert(ptr noundef %0, ptr noundef @.str.9, ptr noundef @.str.6, i32 noundef 31, ptr noundef @__func__.VIRTIO_SCSI)
  ret ptr %call
}

; Function Attrs: nounwind sspstrong uwtable
define internal void @virtio_scsi_handle_event(ptr noundef %vdev, ptr noundef %vq) #0 {
entry:
  %vdev.addr = alloca ptr, align 8
  %vq.addr = alloca ptr, align 8
  %s = alloca ptr, align 8
  store ptr %vdev, ptr %vdev.addr, align 8
  store ptr %vq, ptr %vq.addr, align 8
  %0 = load ptr, ptr %vdev.addr, align 8
  %call = call ptr @VIRTIO_SCSI(ptr noundef %0)
  store ptr %call, ptr %s, align 8
  %1 = load ptr, ptr %s, align 8
  %call1 = call zeroext i1 @virtio_scsi_defer_to_dataplane(ptr noundef %1)
  br i1 %call1, label %if.then, label %if.end

if.then:                                          ; preds = %entry
  br label %return

if.end:                                           ; preds = %entry
  %2 = load ptr, ptr %s, align 8
  call void @virtio_scsi_acquire(ptr noundef %2)
  %3 = load ptr, ptr %s, align 8
  %4 = load ptr, ptr %vq.addr, align 8
  call void @virtio_scsi_handle_event_vq(ptr noundef %3, ptr noundef %4)
  %5 = load ptr, ptr %s, align 8
  call void @virtio_scsi_release(ptr noundef %5)
  br label %return

return:                                           ; preds = %if.end, %if.then
  ret void
}