; Function Attrs: nounwind sspstrong uwtable
define internal void @virtio_scsi_handle_event(ptr noundef %vdev, ptr readnone captures(none) %vq) #0 {
entry:
  %info.i = alloca %struct.VirtIOSCSIEventInfo, align 4
  %call.i = tail call ptr @object_dynamic_cast_assert(ptr noundef %vdev, ptr noundef nonnull @.str.9, ptr noundef nonnull @.str.6, i32 noundef 31, ptr noundef nonnull @__func__.VIRTIO_SCSI) #13
  %ctx.i = getelementptr inbounds nuw i8, ptr %call.i, i64 840
  %0 = load ptr, ptr %ctx.i, align 8
  %tobool.not.i = icmp eq ptr %0, null
  br i1 %tobool.not.i, label %virtio_scsi_acquire.exit, label %lor.lhs.false.i

lor.lhs.false.i:                                  ; preds = %entry
  %dataplane_started.i = getelementptr inbounds nuw i8, ptr %call.i, i64 848
  %1 = load i8, ptr %dataplane_started.i, align 8
  %tobool1.i = trunc i8 %1 to i1
  br i1 %tobool1.i, label %if.then.i, label %virtio_scsi_defer_to_dataplane.exit

virtio_scsi_defer_to_dataplane.exit:              ; preds = %lor.lhs.false.i
  %call.i5 = tail call i32 @virtio_device_start_ioeventfd(ptr noundef nonnull %call.i) #13
  %dataplane_fenced.i = getelementptr inbounds nuw i8, ptr %call.i, i64 851
  %2 = load i8, ptr %dataplane_fenced.i, align 1
  %tobool3.i = trunc i8 %2 to i1
  br i1 %tobool3.i, label %if.end, label %return

if.end:                                           ; preds = %virtio_scsi_defer_to_dataplane.exit
  %call.val.pr.pre = load ptr, ptr %ctx.i, align 8
  %tobool.not.i6 = icmp eq ptr %call.val.pr.pre, null
  br i1 %tobool.not.i6, label %virtio_scsi_acquire.exit, label %if.then.i

if.then.i:                                        ; preds = %lor.lhs.false.i, %if.end
  %call.val.pr19 = phi ptr [ %call.val.pr.pre, %if.end ], [ %0, %lor.lhs.false.i ]
  tail call void @aio_context_acquire(ptr noundef nonnull %call.val.pr19) #13
  br label %virtio_scsi_acquire.exit

virtio_scsi_acquire.exit:                         ; preds = %entry, %if.end, %if.then.i
  call void @llvm.lifetime.start.p0(i64 16, ptr nonnull %info.i)
  %events_dropped.i = getelementptr inbounds nuw i8, ptr %call.i, i64 812
  %3 = load i8, ptr %events_dropped.i, align 4
  %tobool.i = trunc i8 %3 to i1
  br i1 %tobool.i, label %if.then.i9, label %virtio_scsi_handle_event_vq.exit

if.then.i9:                                       ; preds = %virtio_scsi_acquire.exit
  call void @llvm.memset.p0.i64(ptr noundef nonnull align 4 dereferenceable(16) %info.i, i8 0, i64 16, i1 false)
  call fastcc void @virtio_scsi_push_event(ptr noundef nonnull %call.i, ptr noundef %info.i)
  br label %virtio_scsi_handle_event_vq.exit

virtio_scsi_handle_event_vq.exit:                 ; preds = %virtio_scsi_acquire.exit, %if.then.i9
  call void @llvm.lifetime.end.p0(i64 16, ptr nonnull %info.i)
  %call.val4 = load ptr, ptr %ctx.i, align 8
  %tobool.not.i10 = icmp eq ptr %call.val4, null
  br i1 %tobool.not.i10, label %return, label %if.then.i11

if.then.i11:                                      ; preds = %virtio_scsi_handle_event_vq.exit
  tail call void @aio_context_release(ptr noundef nonnull %call.val4) #13
  br label %return

return:                                           ; preds = %if.then.i11, %virtio_scsi_handle_event_vq.exit, %virtio_scsi_defer_to_dataplane.exit
  ret void
}